target datalayout = "e-m:e-p270:32:32-p271:32:32-p272:64:64-i64:64-i128:128-f80:128-n8:16:32:64-S128"
target triple = "x86_64-pc-linux-gnu"

%struct.Dsd_Manager_t_ = type { ptr, ptr, i32, i32, i32, ptr, ptr, ptr, i32 }
%struct.DdManager = type { %struct.DdNode, ptr, ptr, ptr, ptr, ptr, ptr, ptr, i32, i32, double, double, double, i32, i32, i32, i32, i32, i32, ptr, ptr, %struct.DdSubtable, i32, i32, i32, i32, i32, i32, i32, double, i32, i32, i32, ptr, i64, double, i32, ptr, ptr, ptr, ptr, ptr, ptr, ptr, i32, ptr, ptr, ptr, ptr, ptr, ptr, i32, i32, i32, double, i32, i32, i32, i32, double, double, i32, i32, i32, i32, i32, i32, i32, i32, i32, ptr, ptr, i32, i32, i32, i32, i32, i32, ptr, ptr, ptr, ptr, ptr, ptr, ptr, ptr, i32, i64, i64, i64, i32, i64, i64, double, double, double, double, double, double, i32, ptr, ptr, i64 }
%struct.DdNode = type { i32, i32, ptr, %union.anon, i64 }
%union.anon = type { %struct.DdChildren }
%struct.DdChildren = type { ptr, ptr }
%struct.DdSubtable = type { ptr, i32, i32, i32, i32, i32, i32, i32, i32, i32, i32, i32 }
%struct.Dsd_Node_t_ = type { i32, ptr, ptr, ptr, i64, i16, i16 }

; Function Attrs: nounwind uwtable
define ptr @Dsd_ManagerStart(ptr noundef %0, i32 noundef %1, i32 noundef %2) #0 {
  %4 = alloca ptr, align 8
  %5 = alloca i32, align 4
  %6 = alloca i32, align 4
  %7 = alloca ptr, align 8
  %8 = alloca ptr, align 8
  %9 = alloca i32, align 4
  store ptr %0, ptr %4, align 8, !tbaa !3
  store i32 %1, ptr %5, align 4, !tbaa !8
  store i32 %2, ptr %6, align 4, !tbaa !8
  call void @llvm.lifetime.start.p0(i64 8, ptr %7) #6
  call void @llvm.lifetime.start.p0(i64 8, ptr %8) #6
  call void @llvm.lifetime.start.p0(i64 4, ptr %9) #6
  %10 = call noalias ptr @malloc(i64 noundef 64) #7
  store ptr %10, ptr %7, align 8, !tbaa !10
  %11 = load ptr, ptr %7, align 8, !tbaa !10
  call void @llvm.memset.p0.i64(ptr align 8 %11, i8 0, i64 64, i1 false)
  %12 = load ptr, ptr %4, align 8, !tbaa !3
  %13 = load ptr, ptr %7, align 8, !tbaa !10
  %14 = getelementptr inbounds nuw %struct.Dsd_Manager_t_, ptr %13, i32 0, i32 0
  store ptr %12, ptr %14, align 8, !tbaa !12
  %15 = load i32, ptr %5, align 4, !tbaa !8
  %16 = load ptr, ptr %7, align 8, !tbaa !10
  %17 = getelementptr inbounds nuw %struct.Dsd_Manager_t_, ptr %16, i32 0, i32 2
  store i32 %15, ptr %17, align 8, !tbaa !17
  %18 = load i32, ptr %6, align 4, !tbaa !8
  %19 = load ptr, ptr %7, align 8, !tbaa !10
  %20 = getelementptr inbounds nuw %struct.Dsd_Manager_t_, ptr %19, i32 0, i32 8
  store i32 %18, ptr %20, align 8, !tbaa !18
  %21 = load ptr, ptr %7, align 8, !tbaa !10
  %22 = getelementptr inbounds nuw %struct.Dsd_Manager_t_, ptr %21, i32 0, i32 3
  store i32 0, ptr %22, align 4, !tbaa !19
  %23 = load ptr, ptr %7, align 8, !tbaa !10
  %24 = getelementptr inbounds nuw %struct.Dsd_Manager_t_, ptr %23, i32 0, i32 4
  store i32 50, ptr %24, align 8, !tbaa !20
  %25 = load ptr, ptr %7, align 8, !tbaa !10
  %26 = getelementptr inbounds nuw %struct.Dsd_Manager_t_, ptr %25, i32 0, i32 4
  %27 = load i32, ptr %26, align 8, !tbaa !20
  %28 = sext i32 %27 to i64
  %29 = mul i64 %28, 8
  %30 = mul i64 1, %29
  %31 = call noalias ptr @malloc(i64 noundef %30) #7
  %32 = load ptr, ptr %7, align 8, !tbaa !10
  %33 = getelementptr inbounds nuw %struct.Dsd_Manager_t_, ptr %32, i32 0, i32 6
  store ptr %31, ptr %33, align 8, !tbaa !21
  %34 = load ptr, ptr %7, align 8, !tbaa !10
  %35 = getelementptr inbounds nuw %struct.Dsd_Manager_t_, ptr %34, i32 0, i32 2
  %36 = load i32, ptr %35, align 8, !tbaa !17
  %37 = sext i32 %36 to i64
  %38 = mul i64 %37, 8
  %39 = mul i64 1, %38
  %40 = call noalias ptr @malloc(i64 noundef %39) #7
  %41 = load ptr, ptr %7, align 8, !tbaa !10
  %42 = getelementptr inbounds nuw %struct.Dsd_Manager_t_, ptr %41, i32 0, i32 5
  store ptr %40, ptr %42, align 8, !tbaa !22
  %43 = call ptr @st__init_table(ptr noundef @st__ptrcmp, ptr noundef @st__ptrhash)
  %44 = load ptr, ptr %7, align 8, !tbaa !10
  %45 = getelementptr inbounds nuw %struct.Dsd_Manager_t_, ptr %44, i32 0, i32 1
  store ptr %43, ptr %45, align 8, !tbaa !23
  store i32 0, ptr %9, align 4, !tbaa !8
  br label %46

46:                                               ; preds = %97, %3
  %47 = load i32, ptr %9, align 4, !tbaa !8
  %48 = load ptr, ptr %7, align 8, !tbaa !10
  %49 = getelementptr inbounds nuw %struct.Dsd_Manager_t_, ptr %48, i32 0, i32 2
  %50 = load i32, ptr %49, align 8, !tbaa !17
  %51 = icmp slt i32 %47, %50
  br i1 %51, label %52, label %100

52:                                               ; preds = %46
  %53 = call ptr @Dsd_TreeNodeCreate(i32 noundef 2, i32 noundef 1, i32 noundef 0)
  store ptr %53, ptr %8, align 8, !tbaa !24
  %54 = load ptr, ptr %4, align 8, !tbaa !3
  %55 = getelementptr inbounds nuw %struct.DdManager, ptr %54, i32 0, i32 41
  %56 = load ptr, ptr %55, align 8, !tbaa !25
  %57 = load i32, ptr %9, align 4, !tbaa !8
  %58 = sext i32 %57 to i64
  %59 = getelementptr inbounds ptr, ptr %56, i64 %58
  %60 = load ptr, ptr %59, align 8, !tbaa !42
  %61 = load ptr, ptr %8, align 8, !tbaa !24
  %62 = getelementptr inbounds nuw %struct.Dsd_Node_t_, ptr %61, i32 0, i32 1
  store ptr %60, ptr %62, align 8, !tbaa !43
  %63 = load ptr, ptr %8, align 8, !tbaa !24
  %64 = getelementptr inbounds nuw %struct.Dsd_Node_t_, ptr %63, i32 0, i32 1
  %65 = load ptr, ptr %64, align 8, !tbaa !43
  call void @Cudd_Ref(ptr noundef %65)
  %66 = load ptr, ptr %4, align 8, !tbaa !3
  %67 = getelementptr inbounds nuw %struct.DdManager, ptr %66, i32 0, i32 41
  %68 = load ptr, ptr %67, align 8, !tbaa !25
  %69 = load i32, ptr %9, align 4, !tbaa !8
  %70 = sext i32 %69 to i64
  %71 = getelementptr inbounds ptr, ptr %68, i64 %70
  %72 = load ptr, ptr %71, align 8, !tbaa !42
  %73 = load ptr, ptr %8, align 8, !tbaa !24
  %74 = getelementptr inbounds nuw %struct.Dsd_Node_t_, ptr %73, i32 0, i32 2
  store ptr %72, ptr %74, align 8, !tbaa !46
  %75 = load ptr, ptr %8, align 8, !tbaa !24
  %76 = getelementptr inbounds nuw %struct.Dsd_Node_t_, ptr %75, i32 0, i32 2
  %77 = load ptr, ptr %76, align 8, !tbaa !46
  call void @Cudd_Ref(ptr noundef %77)
  %78 = load ptr, ptr %7, align 8, !tbaa !10
  %79 = getelementptr inbounds nuw %struct.Dsd_Manager_t_, ptr %78, i32 0, i32 1
  %80 = load ptr, ptr %79, align 8, !tbaa !23
  %81 = load ptr, ptr %4, align 8, !tbaa !3
  %82 = getelementptr inbounds nuw %struct.DdManager, ptr %81, i32 0, i32 41
  %83 = load ptr, ptr %82, align 8, !tbaa !25
  %84 = load i32, ptr %9, align 4, !tbaa !8
  %85 = sext i32 %84 to i64
  %86 = getelementptr inbounds ptr, ptr %83, i64 %85
  %87 = load ptr, ptr %86, align 8, !tbaa !42
  %88 = load ptr, ptr %8, align 8, !tbaa !24
  %89 = call i32 @st__insert(ptr noundef %80, ptr noundef %87, ptr noundef %88)
  %90 = load ptr, ptr %8, align 8, !tbaa !24
  %91 = load ptr, ptr %7, align 8, !tbaa !10
  %92 = getelementptr inbounds nuw %struct.Dsd_Manager_t_, ptr %91, i32 0, i32 5
  %93 = load ptr, ptr %92, align 8, !tbaa !22
  %94 = load i32, ptr %9, align 4, !tbaa !8
  %95 = sext i32 %94 to i64
  %96 = getelementptr inbounds ptr, ptr %93, i64 %95
  store ptr %90, ptr %96, align 8, !tbaa !24
  br label %97

97:                                               ; preds = %52
  %98 = load i32, ptr %9, align 4, !tbaa !8
  %99 = add nsw i32 %98, 1
  store i32 %99, ptr %9, align 4, !tbaa !8
  br label %46, !llvm.loop !47

100:                                              ; preds = %46
  %101 = call ptr @Dsd_TreeNodeCreate(i32 noundef 1, i32 noundef 0, i32 noundef 0)
  store ptr %101, ptr %8, align 8, !tbaa !24
  %102 = load ptr, ptr %4, align 8, !tbaa !3
  %103 = getelementptr inbounds nuw %struct.DdManager, ptr %102, i32 0, i32 1
  %104 = load ptr, ptr %103, align 8, !tbaa !49
  %105 = load ptr, ptr %8, align 8, !tbaa !24
  %106 = getelementptr inbounds nuw %struct.Dsd_Node_t_, ptr %105, i32 0, i32 1
  store ptr %104, ptr %106, align 8, !tbaa !43
  %107 = load ptr, ptr %8, align 8, !tbaa !24
  %108 = getelementptr inbounds nuw %struct.Dsd_Node_t_, ptr %107, i32 0, i32 1
  %109 = load ptr, ptr %108, align 8, !tbaa !43
  call void @Cudd_Ref(ptr noundef %109)
  %110 = load ptr, ptr %4, align 8, !tbaa !3
  %111 = getelementptr inbounds nuw %struct.DdManager, ptr %110, i32 0, i32 1
  %112 = load ptr, ptr %111, align 8, !tbaa !49
  %113 = load ptr, ptr %8, align 8, !tbaa !24
  %114 = getelementptr inbounds nuw %struct.Dsd_Node_t_, ptr %113, i32 0, i32 2
  store ptr %112, ptr %114, align 8, !tbaa !46
  %115 = load ptr, ptr %8, align 8, !tbaa !24
  %116 = getelementptr inbounds nuw %struct.Dsd_Node_t_, ptr %115, i32 0, i32 2
  %117 = load ptr, ptr %116, align 8, !tbaa !46
  call void @Cudd_Ref(ptr noundef %117)
  %118 = load ptr, ptr %7, align 8, !tbaa !10
  %119 = getelementptr inbounds nuw %struct.Dsd_Manager_t_, ptr %118, i32 0, i32 1
  %120 = load ptr, ptr %119, align 8, !tbaa !23
  %121 = load ptr, ptr %4, align 8, !tbaa !3
  %122 = getelementptr inbounds nuw %struct.DdManager, ptr %121, i32 0, i32 1
  %123 = load ptr, ptr %122, align 8, !tbaa !49
  %124 = load ptr, ptr %8, align 8, !tbaa !24
  %125 = call i32 @st__insert(ptr noundef %120, ptr noundef %123, ptr noundef %124)
  %126 = load ptr, ptr %8, align 8, !tbaa !24
  %127 = load ptr, ptr %7, align 8, !tbaa !10
  %128 = getelementptr inbounds nuw %struct.Dsd_Manager_t_, ptr %127, i32 0, i32 7
  store ptr %126, ptr %128, align 8, !tbaa !50
  call void @Dsd_CheckCacheAllocate(i32 noundef 5000)
  %129 = load ptr, ptr %7, align 8, !tbaa !10
  call void @llvm.lifetime.end.p0(i64 4, ptr %9) #6
  call void @llvm.lifetime.end.p0(i64 8, ptr %8) #6
  call void @llvm.lifetime.end.p0(i64 8, ptr %7) #6
  ret ptr %129
}