; Function Attrs: nounwind uwtable
define noalias noundef ptr @Dsd_ManagerStart(ptr noundef %0, i32 noundef %1, i32 noundef %2) local_unnamed_addr #0 {
  %calloc = tail call dereferenceable_or_null(64) ptr @calloc(i64 1, i64 64)
  store ptr %0, ptr %calloc, align 8, !tbaa !3
  %4 = getelementptr inbounds nuw i8, ptr %calloc, i64 16
  store i32 %1, ptr %4, align 8, !tbaa !13
  %5 = getelementptr inbounds nuw i8, ptr %calloc, i64 56
  store i32 %2, ptr %5, align 8, !tbaa !14
  %6 = getelementptr inbounds nuw i8, ptr %calloc, i64 24
  store i32 50, ptr %6, align 8, !tbaa !15
  %7 = tail call noalias dereferenceable_or_null(400) ptr @malloc(i64 noundef 400) #6
  %8 = getelementptr inbounds nuw i8, ptr %calloc, i64 40
  store ptr %7, ptr %8, align 8, !tbaa !16
  %9 = sext i32 %1 to i64
  %10 = shl nsw i64 %9, 3
  %11 = tail call noalias ptr @malloc(i64 noundef %10) #6
  %12 = getelementptr inbounds nuw i8, ptr %calloc, i64 32
  store ptr %11, ptr %12, align 8, !tbaa !17
  %13 = tail call ptr @st__init_table(ptr noundef nonnull @st__ptrcmp, ptr noundef nonnull @st__ptrhash) #7
  %14 = getelementptr inbounds nuw i8, ptr %calloc, i64 8
  store ptr %13, ptr %14, align 8, !tbaa !18
  %15 = icmp sgt i32 %1, 0
  br i1 %15, label %.lr.ph, label %._crit_edge

.lr.ph:                                           ; preds = %3
  %16 = getelementptr inbounds nuw i8, ptr %0, i64 344
  %wide.trip.count = zext nneg i32 %1 to i64
  br label %17

17:                                               ; preds = %.lr.ph, %17
  %indvars.iv = phi i64 [ 0, %.lr.ph ], [ %indvars.iv.next, %17 ]
  %18 = tail call ptr @Dsd_TreeNodeCreate(i32 noundef 2, i32 noundef 1, i32 noundef 0) #7
  %19 = load ptr, ptr %16, align 8, !tbaa !19
  %20 = getelementptr inbounds nuw ptr, ptr %19, i64 %indvars.iv
  %21 = load ptr, ptr %20, align 8, !tbaa !36
  %22 = getelementptr inbounds nuw i8, ptr %18, i64 8
  store ptr %21, ptr %22, align 8, !tbaa !37
  tail call void @Cudd_Ref(ptr noundef %21) #7
  %23 = load ptr, ptr %16, align 8, !tbaa !19
  %24 = getelementptr inbounds nuw ptr, ptr %23, i64 %indvars.iv
  %25 = load ptr, ptr %24, align 8, !tbaa !36
  %26 = getelementptr inbounds nuw i8, ptr %18, i64 16
  store ptr %25, ptr %26, align 8, !tbaa !40
  tail call void @Cudd_Ref(ptr noundef %25) #7
  %27 = load ptr, ptr %16, align 8, !tbaa !19
  %28 = getelementptr inbounds nuw ptr, ptr %27, i64 %indvars.iv
  %29 = load ptr, ptr %28, align 8, !tbaa !36
  %30 = tail call i32 @st__insert(ptr noundef %13, ptr noundef %29, ptr noundef %18) #7
  %31 = getelementptr inbounds nuw ptr, ptr %11, i64 %indvars.iv
  store ptr %18, ptr %31, align 8, !tbaa !41
  %indvars.iv.next = add nuw nsw i64 %indvars.iv, 1
  %exitcond.not = icmp eq i64 %indvars.iv.next, %wide.trip.count
  br i1 %exitcond.not, label %._crit_edge, label %17, !llvm.loop !42

._crit_edge:                                      ; preds = %17, %3
  %32 = tail call ptr @Dsd_TreeNodeCreate(i32 noundef 1, i32 noundef 0, i32 noundef 0) #7
  %33 = getelementptr inbounds nuw i8, ptr %0, i64 40
  %34 = load ptr, ptr %33, align 8, !tbaa !44
  %35 = getelementptr inbounds nuw i8, ptr %32, i64 8
  store ptr %34, ptr %35, align 8, !tbaa !37
  tail call void @Cudd_Ref(ptr noundef %34) #7
  %36 = load ptr, ptr %33, align 8, !tbaa !44
  %37 = getelementptr inbounds nuw i8, ptr %32, i64 16
  store ptr %36, ptr %37, align 8, !tbaa !40
  tail call void @Cudd_Ref(ptr noundef %36) #7
  %38 = load ptr, ptr %33, align 8, !tbaa !44
  %39 = tail call i32 @st__insert(ptr noundef %13, ptr noundef %38, ptr noundef %32) #7
  %40 = getelementptr inbounds nuw i8, ptr %calloc, i64 48
  store ptr %32, ptr %40, align 8, !tbaa !45
  tail call void @Dsd_CheckCacheAllocate(i32 noundef 5000) #7
  ret ptr %calloc
}